; Function Attrs: nounwind uwtable
define hidden noundef zeroext i1 @_mi_free_delayed_block(ptr noundef %0) local_unnamed_addr #3 {
  %2 = ptrtoint ptr %0 to i64
  %3 = add i64 %2, -1
  %4 = and i64 %3, -4194304
  %5 = inttoptr i64 %4 to ptr
  %6 = icmp slt i64 %3, 4194304
  %7 = select i1 %6, ptr null, ptr %5
  %8 = ptrtoint ptr %7 to i64
  %9 = sub i64 %2, %8
  %10 = getelementptr inbounds nuw i8, ptr %7, i64 144
  %11 = load i64, ptr %10, align 16, !tbaa !22
  %12 = lshr i64 %9, %11
  %13 = getelementptr inbounds nuw i8, ptr %7, i64 160
  %14 = getelementptr inbounds nuw [1 x %struct.mi_page_s], ptr %13, i64 0, i64 %12
  %15 = tail call zeroext i1 @_mi_page_try_use_delayed_free(ptr noundef nonnull %14, i32 noundef 0, i1 noundef zeroext false) #19
  br i1 %15, label %16, label %mi_free_block_local.exit

16:                                               ; preds = %1
  tail call void @_mi_page_free_collect(ptr noundef nonnull %14, i1 noundef zeroext false) #19
  %17 = getelementptr inbounds nuw i8, ptr %14, i64 16
  %18 = load ptr, ptr %17, align 16, !tbaa !30
  %19 = ptrtoint ptr %18 to i64
  store i64 %19, ptr %0, align 8, !tbaa !18
  store ptr %0, ptr %17, align 16, !tbaa !30
  %20 = getelementptr inbounds nuw i8, ptr %14, i64 24
  %21 = load i16, ptr %20, align 8, !tbaa !20
  %22 = add i16 %21, -1
  store i16 %22, ptr %20, align 8, !tbaa !20
  %23 = icmp eq i16 %22, 0
  br i1 %23, label %24, label %25, !prof !17

24:                                               ; preds = %16
  tail call void @_mi_page_retire(ptr noundef nonnull %14) #19
  br label %mi_free_block_local.exit

25:                                               ; preds = %16
  %26 = getelementptr i8, ptr %14, i64 6
  %.val.i = load i8, ptr %26, align 2
  %27 = and i8 %.val.i, 1
  %.not.i = icmp eq i8 %27, 0
  br i1 %.not.i, label %mi_free_block_local.exit, label %28, !prof !8

28:                                               ; preds = %25
  tail call void @_mi_page_unfull(ptr noundef nonnull %14) #19
  br label %mi_free_block_local.exit

mi_free_block_local.exit:                         ; preds = %28, %25, %24, %1
  ret i1 %15
}